; Function Attrs: nounwind uwtable
define ptr @l_Lean_Language_Lean_HeaderParsedSnapshot_processedResult(ptr noundef %0) local_unnamed_addr #0 {
  %2 = getelementptr inbounds nuw i8, ptr %0, i64 32
  %3 = load ptr, ptr %2, align 8, !tbaa !4
  %4 = ptrtoint ptr %3 to i64
  %5 = and i64 %4, 1
  %.not = icmp eq i64 %5, 0
  br i1 %.not, label %6, label %lean_inc.exit24

6:                                                ; preds = %1
  %.val.i = load i32, ptr %3, align 4, !tbaa !8
  %7 = icmp sgt i32 %.val.i, 0
  br i1 %7, label %8, label %10, !prof !11

8:                                                ; preds = %6
  %9 = add nuw i32 %.val.i, 1
  store i32 %9, ptr %3, align 4, !tbaa !8
  br label %lean_inc.exit24

10:                                               ; preds = %6
  %.not.i31 = icmp eq i32 %.val.i, 0
  br i1 %.not.i31, label %lean_inc.exit24, label %11

11:                                               ; preds = %10
  tail call void @lean_inc_ref_cold(ptr noundef nonnull %3) #3
  br label %lean_inc.exit24

lean_inc.exit24:                                  ; preds = %11, %10, %8, %1
  %12 = ptrtoint ptr %0 to i64
  %13 = and i64 %12, 1
  %.not46 = icmp eq i64 %13, 0
  br i1 %.not46, label %14, label %lean_dec.exit26

14:                                               ; preds = %lean_inc.exit24
  %15 = load i32, ptr %0, align 4, !tbaa !8
  %16 = icmp sgt i32 %15, 1
  br i1 %16, label %17, label %19, !prof !11

17:                                               ; preds = %14
  %18 = add nsw i32 %15, -1
  store i32 %18, ptr %0, align 4, !tbaa !8
  br label %lean_dec.exit26

19:                                               ; preds = %14
  %.not.i = icmp eq i32 %15, 0
  br i1 %.not.i, label %lean_dec.exit26, label %20

20:                                               ; preds = %19
  tail call void @lean_dec_ref_cold(ptr noundef nonnull %0) #3
  br label %lean_dec.exit26

lean_dec.exit26:                                  ; preds = %20, %19, %17, %lean_inc.exit24
  br i1 %.not, label %24, label %21

21:                                               ; preds = %lean_dec.exit26
  %22 = lshr i64 %4, 1
  %23 = trunc i64 %22 to i32
  br label %lean_obj_tag.exit

24:                                               ; preds = %lean_dec.exit26
  %25 = getelementptr i8, ptr %3, i64 4
  %.val.i33 = load i32, ptr %25, align 4
  %26 = lshr i32 %.val.i33, 24
  br label %lean_obj_tag.exit

lean_obj_tag.exit:                                ; preds = %21, %24
  %.0.i = phi i32 [ %23, %21 ], [ %26, %24 ]
  %27 = icmp eq i32 %.0.i, 0
  br i1 %27, label %28, label %30

28:                                               ; preds = %lean_obj_tag.exit
  %29 = load ptr, ptr @l_Lean_Language_Lean_HeaderParsedSnapshot_processedResult___closed__1, align 8, !tbaa !4
  br label %87

30:                                               ; preds = %lean_obj_tag.exit
  %31 = getelementptr inbounds nuw i8, ptr %3, i64 8
  %32 = load ptr, ptr %31, align 8, !tbaa !4
  %33 = ptrtoint ptr %32 to i64
  %34 = and i64 %33, 1
  %.not47 = icmp eq i64 %34, 0
  br i1 %.not47, label %35, label %lean_inc.exit23

35:                                               ; preds = %30
  %.val.i34 = load i32, ptr %32, align 4, !tbaa !8
  %36 = icmp sgt i32 %.val.i34, 0
  br i1 %36, label %37, label %39, !prof !11

37:                                               ; preds = %35
  %38 = add nuw i32 %.val.i34, 1
  store i32 %38, ptr %32, align 4, !tbaa !8
  br label %lean_inc.exit23

39:                                               ; preds = %35
  %.not.i35 = icmp eq i32 %.val.i34, 0
  br i1 %.not.i35, label %lean_inc.exit23, label %40

40:                                               ; preds = %39
  tail call void @lean_inc_ref_cold(ptr noundef nonnull %32) #3
  br label %lean_inc.exit23

lean_inc.exit23:                                  ; preds = %40, %39, %37, %30
  br i1 %.not, label %41, label %lean_dec.exit25

41:                                               ; preds = %lean_inc.exit23
  %42 = load i32, ptr %3, align 4, !tbaa !8
  %43 = icmp sgt i32 %42, 1
  br i1 %43, label %44, label %46, !prof !11

44:                                               ; preds = %41
  %45 = add nsw i32 %42, -1
  store i32 %45, ptr %3, align 4, !tbaa !8
  br label %lean_dec.exit25

46:                                               ; preds = %41
  %.not.i27 = icmp eq i32 %42, 0
  br i1 %.not.i27, label %lean_dec.exit25, label %47

47:                                               ; preds = %46
  tail call void @lean_dec_ref_cold(ptr noundef nonnull %3) #3
  br label %lean_dec.exit25

lean_dec.exit25:                                  ; preds = %47, %46, %44, %lean_inc.exit23
  %48 = getelementptr inbounds nuw i8, ptr %32, i64 16
  %49 = load ptr, ptr %48, align 8, !tbaa !4
  %50 = ptrtoint ptr %49 to i64
  %51 = and i64 %50, 1
  %.not48 = icmp eq i64 %51, 0
  br i1 %.not48, label %52, label %lean_inc.exit22

52:                                               ; preds = %lean_dec.exit25
  %.val.i37 = load i32, ptr %49, align 4, !tbaa !8
  %53 = icmp sgt i32 %.val.i37, 0
  br i1 %53, label %54, label %56, !prof !11

54:                                               ; preds = %52
  %55 = add nuw i32 %.val.i37, 1
  store i32 %55, ptr %49, align 4, !tbaa !8
  br label %lean_inc.exit22

56:                                               ; preds = %52
  %.not.i38 = icmp eq i32 %.val.i37, 0
  br i1 %.not.i38, label %lean_inc.exit22, label %57

57:                                               ; preds = %56
  tail call void @lean_inc_ref_cold(ptr noundef nonnull %49) #3
  br label %lean_inc.exit22

lean_inc.exit22:                                  ; preds = %57, %56, %54, %lean_dec.exit25
  br i1 %.not47, label %58, label %lean_dec.exit

58:                                               ; preds = %lean_inc.exit22
  %59 = load i32, ptr %32, align 4, !tbaa !8
  %60 = icmp sgt i32 %59, 1
  br i1 %60, label %61, label %63, !prof !11

61:                                               ; preds = %58
  %62 = add nsw i32 %59, -1
  store i32 %62, ptr %32, align 4, !tbaa !8
  br label %lean_dec.exit

63:                                               ; preds = %58
  %.not.i29 = icmp eq i32 %59, 0
  br i1 %.not.i29, label %lean_dec.exit, label %64

64:                                               ; preds = %63
  tail call void @lean_dec_ref_cold(ptr noundef nonnull %32) #3
  br label %lean_dec.exit

lean_dec.exit:                                    ; preds = %64, %63, %61, %lean_inc.exit22
  %65 = getelementptr inbounds nuw i8, ptr %49, i64 8
  %66 = load ptr, ptr %65, align 8, !tbaa !4
  %67 = ptrtoint ptr %66 to i64
  %68 = and i64 %67, 1
  %.not49 = icmp eq i64 %68, 0
  br i1 %.not49, label %69, label %lean_inc.exit21

69:                                               ; preds = %lean_dec.exit
  %.val.i40 = load i32, ptr %66, align 4, !tbaa !8
  %70 = icmp sgt i32 %.val.i40, 0
  br i1 %70, label %71, label %73, !prof !11

71:                                               ; preds = %69
  %72 = add nuw i32 %.val.i40, 1
  store i32 %72, ptr %66, align 4, !tbaa !8
  br label %lean_inc.exit21

73:                                               ; preds = %69
  %.not.i41 = icmp eq i32 %.val.i40, 0
  br i1 %.not.i41, label %lean_inc.exit21, label %74

74:                                               ; preds = %73
  tail call void @lean_inc_ref_cold(ptr noundef nonnull %66) #3
  br label %lean_inc.exit21

lean_inc.exit21:                                  ; preds = %74, %73, %71, %lean_dec.exit
  %75 = getelementptr inbounds nuw i8, ptr %49, i64 16
  %76 = load ptr, ptr %75, align 8, !tbaa !4
  %77 = ptrtoint ptr %76 to i64
  %78 = and i64 %77, 1
  %.not50 = icmp eq i64 %78, 0
  br i1 %.not50, label %79, label %lean_inc.exit

79:                                               ; preds = %lean_inc.exit21
  %.val.i43 = load i32, ptr %76, align 4, !tbaa !8
  %80 = icmp sgt i32 %.val.i43, 0
  br i1 %80, label %81, label %83, !prof !11

81:                                               ; preds = %79
  %82 = add nuw i32 %.val.i43, 1
  store i32 %82, ptr %76, align 4, !tbaa !8
  br label %lean_inc.exit

83:                                               ; preds = %79
  %.not.i44 = icmp eq i32 %.val.i43, 0
  br i1 %.not.i44, label %lean_inc.exit, label %84

84:                                               ; preds = %83
  tail call void @lean_inc_ref_cold(ptr noundef nonnull %76) #3
  br label %lean_inc.exit

lean_inc.exit:                                    ; preds = %84, %83, %81, %lean_inc.exit21
  %85 = load ptr, ptr @l_Lean_Language_Lean_HeaderParsedSnapshot_processedResult___closed__2, align 8, !tbaa !4
  %86 = tail call ptr @l_Lean_Language_SnapshotTask_map___rarg(ptr noundef nonnull %49, ptr noundef %85, ptr noundef %66, ptr noundef %76, i8 noundef zeroext 1) #3
  br label %87

87:                                               ; preds = %lean_inc.exit, %28
  %.0 = phi ptr [ %29, %28 ], [ %86, %lean_inc.exit ]
  ret ptr %.0
}